(lp0
Vcomfort
p1
aVcomfortableness
p2
aVcomfort
p3
aVconsolation
p4
aVcomfort
p5
aVsolace
p6
aVease
p7
aVcomfort
p8
aVcomfort
p9
aVquilt
p10
aVcomforter
p11
aVcomfort
p12
aVpuff
p13
aVcomfort
p14
aVcomfort
p15
aVsoothe
p16
aVconsole
p17
aVsolace
p18
aVcomfort
p19
aVease
p20
aVclean_and_jerk
p21
aVclean
p22
aVclean
p23
aVmake_clean
p24
aVclean
p25
aVpick
p26
aVhouseclean
p27
aVclean_house
p28
aVclean
p29
aVcleanse
p30
aVclean
p31
aVclean
p32
aVclean
p33
aVclean
p34
aVstrip
p35
aVclean
p36
aVscavenge
p37
aVclean
p38
aVclean
p39
aVclean
p40
aVclean
p41
aVclear
p42
aVclean
p43
aVclear
p44
aVlight
p45
aVunclouded
p46
aVclean
p47
aVfresh
p48
aVclean
p49
aVclean
p50
aVclean
p51
aVuncontaminating
p52
aVclean
p53
aVunobjectionable
p54
aVuninfected
p55
aVclean
p56
aVclean
p57
aVclean-living
p58
aVclean
p59
aVfair
p60
aVblank
p61
aVclean
p62
aVwhite
p63
aVclean
p64
aVsporting
p65
aVsporty
p66
aVsportsmanlike
p67
aVclean
p68
aVclean
p69
aVclean
p70
aVclean
p71
aVneat
p72
aVclean
p73
aVclean
p74
aVplumb
p75
aVplum
p76
aVfairly
p77
aVfair
p78
aVclean
p79
aVbed
p80
aVbed
p81
aVbed
p82
aVbottom
p83
aVbed
p84
aVseam
p85
aVbed
p86
aVlayer
p87
aVbed
p88
aVbed
p89
aVbed
p90
aVbed
p91
aVbed
p92
aVbed
p93
aVsleep_together
p94
aVroll_in_the_hay
p95
aVlove
p96
aVmake_out
p97
aVmake_love
p98
aVsleep_with
p99
aVget_laid
p100
aVhave_sex
p101
aVknow
p102
aVdo_it
p103
aVbe_intimate
p104
aVhave_intercourse
p105
aVhave_it_away
p106
aVhave_it_off
p107
aVscrew
p108
aVfuck
p109
aVjazz
p110
aVeff
p111
aVhump
p112
aVlie_with
p113
aVbed
p114
aVhave_a_go_at_it
p115
aVbang
p116
aVget_it_on
p117
aVbonk
p118
aVgo_to_bed
p119
aVturn_in
p120
aVbed
p121
aVcrawl_in
p122
aVkip_down
p123
aVhit_the_hay
p124
aVhit_the_sack
p125
aVsack_out
p126
aVgo_to_sleep
p127
aVretire
p128
aVshower
p129
aVshower
p130
aVshower_bath
p131
aVshower
p132
aVrain_shower
p133
aVshower
p134
aVcascade
p135
aVexhibitor
p136
aVexhibitioner
p137
aVshower
p138
aVshower
p139
aVlavish
p140
aVshower
p141
aVshower
p142
aVshower
p143
aVshower
p144
aVshower_down
p145
aVshower
p146
aVbathtub
p147
aVbathing_tub
p148
aVbath
p149
aVtub
p150
aVtub
p151
aVvat
p152
aVtub
p153
aVtubful
p154
aVbathroom
p155
aVbath
p156
aVtoilet
p157
aVlavatory
p158
aVlav
p159
aVcan
p160
aVjohn
p161
aVprivy
p162
aVbathroom
p163
a.