(lp0
Vfood
p1
aVnutrient
p2
aVfood
p3
aVsolid_food
p4
aVfood
p5
aVfood_for_thought
p6
aVintellectual_nourishment
p7
aVlunch
p8
aVluncheon
p9
aVtiffin
p10
aVdejeuner
p11
aVlunch
p12
aVlunch
p13
aVdinner
p14
aVdinner
p15
aVdinner_party
p16
aVrestaurant
p17
aVeating_house
p18
aVeating_place
p19
aVeatery
p20
a.