(lp0
Vlocation
p1
aVplacement
p2
aVlocation
p3
aVlocating
p4
aVposition
p5
aVpositioning
p6
aVemplacement
p7
aVlocalization
p8
aVlocalisation
p9
aVlocation
p10
aVlocating
p11
aVfix
p12
aVlocation
p13
aVscene
p14
aVscene
p15
aVview
p16
aVaspect
p17
aVprospect
p18
aVscene
p19
aVvista
p20
aVpanorama
p21
aVscene
p22
aVshot
p23
aVpicture
p24
aVscene
p25
aVscene
p26
aVfit
p27
aVtantrum
p28
aVscene
p29
aVconniption
p30
aVscene
p31
aVview
p32
aVsetting
p33
aVscene
p34
aVscenery
p35
aVscene
p36
aVposition
p37
aVview
p38
aVperspective
p39
ag16
ag17
ag18
ag19
ag20
ag21
aVview
p40
aVsurvey
p41
aVsight
p42
aVview
p43
aVeyeshot
p44
aVopinion
p45
aVsentiment
p46
aVpersuasion
p47
aVview
p48
aVthought
p49
aVopinion
p50
aVview
p51
aVview
p52
ag31
ag32
aVhorizon
p53
aVview
p54
aVpurview
p55
aVview
p56
aVsee
p57
aVconsider
p58
aVreckon
p59
aVview
p60
aVregard
p61
aVview
p62
aVconsider
p63
aVlook_at
p64
aVwatch
p65
aVview
p66
aVsee
p67
aVcatch
p68
aVtake_in
p69
a.