(lp0
Vservice
p1
aVservice
p2
aVservice
p3
aVreligious_service
p4
aVdivine_service
p5
aVservice
p6
aVservice
p7
aVmilitary_service
p8
aVarmed_service
p9
aVservice
p10
aVService
p11
aVRobert_William_Service
p12
aVavail
p13
aVhelp
p14
aVservice
p15
aVservice
p16
aVtable_service
p17
aVservicing
p18
aVservice
p19
aVservice
p20
aVserve
p21
aVservice
p22
aVservice
p23
aVserving
p24
aVservice_of_process
p25
aVoverhaul
p26
aVinspection_and_repair
p27
aVservice
p28
aVservice
p29
aVservice
p30
aVserve
p31
aVservice
p32
aVserve
p33
aVservice
p34
aVroom
p35
aVroom
p36
aVway
p37
aVelbow_room
p38
aVroom
p39
aVroom
p40
aVboard
p41
aVroom
p42
aVhotel
p43
a.