(lp0
Vstaff
p1
aVstaff
p2
aVstaff
p3
aVfaculty
p4
aVstaff
p5
aVstaff
p6
aVstaff
p7
aVstave
p8
aVstaff
p9
aVstaff
p10
aVwaiter
p11
aVserver
p12
aVwaiter
p13
aVdriver
p14
aVdriver
p15
aVdriver
p16
aVdriver
p17
aVdevice_driver
p18
aVdriver
p19
aVnumber_one_wood
p20
aVcook
p21
aVCook
p22
aVJames_Cook
p23
aVCaptain_Cook
p24
aVCaptain_James_Cook
p25
aVcook
p26
aVcook
p27
aVfix
p28
aVready
p29
aVmake
p30
aVprepare
p31
aVcook
p32
aVfudge
p33
aVmanipulate
p34
aVfake
p35
aVfalsify
p36
aVcook
p37
aVwangle
p38
aVmisrepresent
p39
aVcook
p40
aVmaid
p41
aVmaidservant
p42
aVhousemaid
p43
aVamah
p44
aVmaid
p45
aVmaiden
p46
aVbellboy
p47
aVbellman
p48
aVbellhop
p49
a.