(lp0
(S'John'
p1
S'NNP'
p2
tp3
a(S'loves'
p4
S'VBZ'
p5
tp6
a(S'Mary'
p7
S'NNP'
p8
tp9
a(S'but'
p10
S'CC'
p11
tp12
a(S'he'
p13
S'PRP'
p14
tp15
a(S'dislikes'
p16
g5
tp17
a(S'Juliet'
p18
S'JJ'
p19
tp20
a.