(lp0
Vmoney
p1
aVmoney
p2
aVmoney
p3
aVvalue
p4
aVvalue
p5
aVvalue
p6
aVeconomic_value
p7
aVvalue
p8
aVvalue
p9
aVtime_value
p10
aVnote_value
p11
aVvalue
p12
aVvalue
p13
aVprize
p14
aVvalue
p15
aVtreasure
p16
aVappreciate
p17
aVrespect
p18
aVesteem
p19
aVvalue
p20
aVprize
p21
aVprise
p22
aVmeasure
p23
aVevaluate
p24
aVvaluate
p25
aVassess
p26
aVappraise
p27
aVvalue
p28
aVrate
p29
aVvalue
p30
aVeconomic
p31
aVeconomical
p32
aVeconomic
p33
aVeconomic
p34
aVeconomical
p35
aVeconomic
p36
aVeconomic
p37
aVcheap
p38
aVinexpensive
p39
aVbrassy
p40
aVcheap
p41
aVflash
p42
aVflashy
p43
aVgarish
p44
aVgaudy
p45
aVgimcrack
p46
aVloud
p47
aVmeretricious
p48
aVtacky
p49
aVtatty
p50
aVtawdry
p51
aVtrashy
p52
aVbum
p53
aVcheap
p54
aVcheesy
p55
aVchintzy
p56
aVcrummy
p57
aVpunk
p58
aVsleazy
p59
aVtinny
p60
aVcheap
p61
aVchinchy
p62
aVchintzy
p63
a.